target datalayout = "e-m:e-p270:32:32-p271:32:32-p272:64:64-i64:64-i128:128-f80:128-n8:16:32:64-S128"
target triple = "x86_64-pc-linux-gnu"

%struct.nameData = type { [64 x i8] }
%struct.TypeCacheEntry = type { i32, i32, i16, i8, i8, i8, i8, i32, i32, i32, i32, i32, i32, i32, i32, i32, i32, i32, i32, i32, i32, %struct.FmgrInfo, %struct.FmgrInfo, %struct.FmgrInfo, %struct.FmgrInfo, ptr, i64, ptr, i32, i32, %struct.FmgrInfo, %struct.FmgrInfo, %struct.FmgrInfo, ptr, i32, i32, ptr, i32, ptr, ptr }
%struct.FmgrInfo = type { ptr, i32, i16, i8, i8, i8, ptr, ptr, ptr }
%struct.RelationData = type { %struct.RelFileLocator, ptr, i32, i32, i8, i8, i8, i8, i8, i32, i32, i32, i32, ptr, ptr, i32, %struct.LockInfoData, ptr, ptr, ptr, ptr, ptr, i8, ptr, ptr, ptr, ptr, ptr, ptr, i32, ptr, i8, ptr, ptr, i32, i8, i32, ptr, i8, ptr, ptr, ptr, ptr, ptr, ptr, ptr, i32, ptr, ptr, ptr, ptr, ptr, ptr, ptr, ptr, ptr, ptr, ptr, ptr, ptr, ptr, ptr, ptr, ptr, ptr, ptr, i32, i8, ptr }
%struct.RelFileLocator = type { i32, i32, i32 }
%struct.LockInfoData = type { %struct.LockRelId }
%struct.LockRelId = type { i32, i32 }
%struct.TupleDescData = type { i32, i32, i32, i32, ptr, [0 x %struct.CompactAttribute] }
%struct.CompactAttribute = type { i32, i16, i8, i8, i8, i8, i8, i8, i8 }
%struct.FormData_pg_attribute = type { i32, %struct.nameData, i32, i16, i16, i32, i16, i8, i8, i8, i8, i8, i8, i8, i8, i8, i8, i8, i16, i32 }

@.str.3 = private unnamed_addr constant [11 x i8] c"typcache.c\00", align 1
@tupledesc_id_counter = internal global i64 1, align 8
@.str.10 = private unnamed_addr constant [39 x i8] c"invalid typrelid for composite type %u\00", align 1
@__func__.load_typcache_tupdesc = private unnamed_addr constant [22 x i8] c"load_typcache_tupdesc\00", align 1

; Function Attrs: inlinehint nounwind uwtable
define internal ptr @TupleDescAttr(ptr noundef %0, i32 noundef %1) #3 {
  %3 = alloca ptr, align 8
  %4 = alloca i32, align 4
  %5 = alloca ptr, align 8
  store ptr %0, ptr %3, align 8
  store i32 %1, ptr %4, align 4
  call void @llvm.lifetime.start.p0(i64 8, ptr %5) #11
  %6 = load ptr, ptr %3, align 8
  %7 = load ptr, ptr %3, align 8
  %8 = getelementptr inbounds nuw %struct.TupleDescData, ptr %7, i32 0, i32 0
  %9 = load i32, ptr %8, align 8
  %10 = sext i32 %9 to i64
  %11 = mul i64 %10, 16
  %12 = add i64 24, %11
  %13 = getelementptr inbounds nuw i8, ptr %6, i64 %12
  store ptr %13, ptr %5, align 8
  %14 = load ptr, ptr %5, align 8
  %15 = load i32, ptr %4, align 4
  %16 = sext i32 %15 to i64
  %17 = getelementptr inbounds %struct.FormData_pg_attribute, ptr %14, i64 %16
  call void @llvm.lifetime.end.p0(i64 8, ptr %5) #11
  ret ptr %17
}

; Function Attrs: nounwind uwtable
define internal void @load_typcache_tupdesc(ptr noundef %0) #0 {
  %2 = alloca ptr, align 8
  %3 = alloca ptr, align 8
  store ptr %0, ptr %2, align 8
  call void @llvm.lifetime.start.p0(i64 8, ptr %3) #11
  %4 = load ptr, ptr %2, align 8
  %5 = getelementptr inbounds nuw %struct.TypeCacheEntry, ptr %4, i32 0, i32 7
  %6 = load i32, ptr %5, align 8
  %7 = icmp ne i32 %6, 0
  br i1 %7, label %22, label %8

8:                                                ; preds = %1
  br label %9

9:                                                ; preds = %8
  br i1 true, label %10, label %12

10:                                               ; preds = %9
  %11 = call zeroext i1 @errstart_cold(i32 noundef 21, ptr noundef null) #12
  br i1 %11, label %14, label %19

12:                                               ; preds = %9
  %13 = call zeroext i1 @errstart(i32 noundef 21, ptr noundef null)
  br i1 %13, label %14, label %19

14:                                               ; preds = %12, %10
  %15 = load ptr, ptr %2, align 8
  %16 = getelementptr inbounds nuw %struct.TypeCacheEntry, ptr %15, i32 0, i32 0
  %17 = load i32, ptr %16, align 8
  %18 = call i32 (ptr, ...) @errmsg_internal(ptr noundef @.str.10, i32 noundef %17)
  call void @errfinish(ptr noundef @.str.3, i32 noundef 973, ptr noundef @__func__.load_typcache_tupdesc)
  br label %19

19:                                               ; preds = %14, %12, %10
  unreachable

20:                                               ; No predecessors!
  br label %21

21:                                               ; preds = %20
  br label %22

22:                                               ; preds = %21, %1
  %23 = load ptr, ptr %2, align 8
  %24 = getelementptr inbounds nuw %struct.TypeCacheEntry, ptr %23, i32 0, i32 7
  %25 = load i32, ptr %24, align 8
  %26 = call ptr @relation_open(i32 noundef %25, i32 noundef 1)
  store ptr %26, ptr %3, align 8
  %27 = load ptr, ptr %3, align 8
  %28 = getelementptr inbounds nuw %struct.RelationData, ptr %27, i32 0, i32 14
  %29 = load ptr, ptr %28, align 8
  %30 = load ptr, ptr %2, align 8
  %31 = getelementptr inbounds nuw %struct.TypeCacheEntry, ptr %30, i32 0, i32 25
  store ptr %29, ptr %31, align 8
  %32 = load ptr, ptr %2, align 8
  %33 = getelementptr inbounds nuw %struct.TypeCacheEntry, ptr %32, i32 0, i32 25
  %34 = load ptr, ptr %33, align 8
  %35 = getelementptr inbounds nuw %struct.TupleDescData, ptr %34, i32 0, i32 3
  %36 = load i32, ptr %35, align 4
  %37 = add i32 %36, 1
  store i32 %37, ptr %35, align 4
  %38 = load i64, ptr @tupledesc_id_counter, align 8
  %39 = add i64 %38, 1
  store i64 %39, ptr @tupledesc_id_counter, align 8
  %40 = load ptr, ptr %2, align 8
  %41 = getelementptr inbounds nuw %struct.TypeCacheEntry, ptr %40, i32 0, i32 26
  store i64 %39, ptr %41, align 8
  %42 = load ptr, ptr %3, align 8
  call void @relation_close(ptr noundef %42, i32 noundef 1)
  call void @llvm.lifetime.end.p0(i64 8, ptr %3) #11
  ret void
}

; Function Attrs: nounwind uwtable
define internal void @cache_record_field_properties(ptr noundef %0) #0 {
  %2 = alloca ptr, align 8
  %3 = alloca ptr, align 8
  %4 = alloca i32, align 4
  %5 = alloca i32, align 4
  %6 = alloca ptr, align 8
  %7 = alloca ptr, align 8
  %8 = alloca i32, align 4
  %9 = alloca ptr, align 8
  store ptr %0, ptr %2, align 8
  %10 = load ptr, ptr %2, align 8
  %11 = getelementptr inbounds nuw %struct.TypeCacheEntry, ptr %10, i32 0, i32 0
  %12 = load i32, ptr %11, align 8
  %13 = icmp eq i32 %12, 2249
  br i1 %13, label %14, label %19

14:                                               ; preds = %1
  %15 = load ptr, ptr %2, align 8
  %16 = getelementptr inbounds nuw %struct.TypeCacheEntry, ptr %15, i32 0, i32 37
  %17 = load i32, ptr %16, align 8
  %18 = or i32 %17, 98304
  store i32 %18, ptr %16, align 8
  br label %154

19:                                               ; preds = %1
  %20 = load ptr, ptr %2, align 8
  %21 = getelementptr inbounds nuw %struct.TypeCacheEntry, ptr %20, i32 0, i32 6
  %22 = load i8, ptr %21, align 1
  %23 = sext i8 %22 to i32
  %24 = icmp eq i32 %23, 99
  br i1 %24, label %25, label %106

25:                                               ; preds = %19
  call void @llvm.lifetime.start.p0(i64 8, ptr %3) #11
  call void @llvm.lifetime.start.p0(i64 4, ptr %4) #11
  call void @llvm.lifetime.start.p0(i64 4, ptr %5) #11
  %26 = load ptr, ptr %2, align 8
  %27 = getelementptr inbounds nuw %struct.TypeCacheEntry, ptr %26, i32 0, i32 25
  %28 = load ptr, ptr %27, align 8
  %29 = icmp eq ptr %28, null
  br i1 %29, label %30, label %32

30:                                               ; preds = %25
  %31 = load ptr, ptr %2, align 8
  call void @load_typcache_tupdesc(ptr noundef %31)
  br label %32

32:                                               ; preds = %30, %25
  %33 = load ptr, ptr %2, align 8
  %34 = getelementptr inbounds nuw %struct.TypeCacheEntry, ptr %33, i32 0, i32 25
  %35 = load ptr, ptr %34, align 8
  store ptr %35, ptr %3, align 8
  %36 = load ptr, ptr %3, align 8
  call void @IncrTupleDescRefCount(ptr noundef %36)
  store i32 491520, ptr %4, align 4
  store i32 0, ptr %5, align 4
  br label %37

37:                                               ; preds = %96, %32
  %38 = load i32, ptr %5, align 4
  %39 = load ptr, ptr %3, align 8
  %40 = getelementptr inbounds nuw %struct.TupleDescData, ptr %39, i32 0, i32 0
  %41 = load i32, ptr %40, align 8
  %42 = icmp slt i32 %38, %41
  br i1 %42, label %43, label %99

43:                                               ; preds = %37
  call void @llvm.lifetime.start.p0(i64 8, ptr %6) #11
  call void @llvm.lifetime.start.p0(i64 8, ptr %7) #11
  %44 = load ptr, ptr %3, align 8
  %45 = load i32, ptr %5, align 4
  %46 = call ptr @TupleDescAttr(ptr noundef %44, i32 noundef %45)
  store ptr %46, ptr %7, align 8
  %47 = load ptr, ptr %7, align 8
  %48 = getelementptr inbounds nuw %struct.FormData_pg_attribute, ptr %47, i32 0, i32 16
  %49 = load i8, ptr %48, align 1, !range !4, !noundef !5
  %50 = trunc i8 %49 to i1
  br i1 %50, label %51, label %52

51:                                               ; preds = %43
  store i32 4, ptr %8, align 4
  br label %93

52:                                               ; preds = %43
  %53 = load ptr, ptr %7, align 8
  %54 = getelementptr inbounds nuw %struct.FormData_pg_attribute, ptr %53, i32 0, i32 2
  %55 = load i32, ptr %54, align 4
  %56 = call ptr @lookup_type_cache(i32 noundef %55, i32 noundef 16409)
  store ptr %56, ptr %6, align 8
  %57 = load ptr, ptr %6, align 8
  %58 = getelementptr inbounds nuw %struct.TypeCacheEntry, ptr %57, i32 0, i32 15
  %59 = load i32, ptr %58, align 8
  %60 = icmp ne i32 %59, 0
  br i1 %60, label %64, label %61

61:                                               ; preds = %52
  %62 = load i32, ptr %4, align 4
  %63 = and i32 %62, -32769
  store i32 %63, ptr %4, align 4
  br label %64

64:                                               ; preds = %61, %52
  %65 = load ptr, ptr %6, align 8
  %66 = getelementptr inbounds nuw %struct.TypeCacheEntry, ptr %65, i32 0, i32 18
  %67 = load i32, ptr %66, align 4
  %68 = icmp ne i32 %67, 0
  br i1 %68, label %72, label %69

69:                                               ; preds = %64
  %70 = load i32, ptr %4, align 4
  %71 = and i32 %70, -65537
  store i32 %71, ptr %4, align 4
  br label %72

72:                                               ; preds = %69, %64
  %73 = load ptr, ptr %6, align 8
  %74 = getelementptr inbounds nuw %struct.TypeCacheEntry, ptr %73, i32 0, i32 19
  %75 = load i32, ptr %74, align 8
  %76 = icmp ne i32 %75, 0
  br i1 %76, label %80, label %77

77:                                               ; preds = %72
  %78 = load i32, ptr %4, align 4
  %79 = and i32 %78, -131073
  store i32 %79, ptr %4, align 4
  br label %80

80:                                               ; preds = %77, %72
  %81 = load ptr, ptr %6, align 8
  %82 = getelementptr inbounds nuw %struct.TypeCacheEntry, ptr %81, i32 0, i32 20
  %83 = load i32, ptr %82, align 4
  %84 = icmp ne i32 %83, 0
  br i1 %84, label %88, label %85

85:                                               ; preds = %80
  %86 = load i32, ptr %4, align 4
  %87 = and i32 %86, -262145
  store i32 %87, ptr %4, align 4
  br label %88

88:                                               ; preds = %85, %80
  %89 = load i32, ptr %4, align 4
  %90 = icmp eq i32 %89, 0
  br i1 %90, label %91, label %92

91:                                               ; preds = %88
  store i32 2, ptr %8, align 4
  br label %93

92:                                               ; preds = %88
  store i32 0, ptr %8, align 4
  br label %93

93:                                               ; preds = %92, %91, %51
  call void @llvm.lifetime.end.p0(i64 8, ptr %7) #11
  call void @llvm.lifetime.end.p0(i64 8, ptr %6) #11
  %94 = load i32, ptr %8, align 4
  switch i32 %94, label %159 [
    i32 0, label %95
    i32 4, label %96
    i32 2, label %99
  ]

95:                                               ; preds = %93
  br label %96

96:                                               ; preds = %95, %93
  %97 = load i32, ptr %5, align 4
  %98 = add i32 %97, 1
  store i32 %98, ptr %5, align 4
  br label %37, !llvm.loop !21

99:                                               ; preds = %93, %37
  %100 = load i32, ptr %4, align 4
  %101 = load ptr, ptr %2, align 8
  %102 = getelementptr inbounds nuw %struct.TypeCacheEntry, ptr %101, i32 0, i32 37
  %103 = load i32, ptr %102, align 8
  %104 = or i32 %103, %100
  store i32 %104, ptr %102, align 8
  %105 = load ptr, ptr %3, align 8
  call void @DecrTupleDescRefCount(ptr noundef %105)
  call void @llvm.lifetime.end.p0(i64 4, ptr %5) #11
  call void @llvm.lifetime.end.p0(i64 4, ptr %4) #11
  call void @llvm.lifetime.end.p0(i64 8, ptr %3) #11
  br label %153

106:                                              ; preds = %19
  %107 = load ptr, ptr %2, align 8
  %108 = getelementptr inbounds nuw %struct.TypeCacheEntry, ptr %107, i32 0, i32 6
  %109 = load i8, ptr %108, align 1
  %110 = sext i8 %109 to i32
  %111 = icmp eq i32 %110, 100
  br i1 %111, label %112, label %152

112:                                              ; preds = %106
  call void @llvm.lifetime.start.p0(i64 8, ptr %9) #11
  %113 = load ptr, ptr %2, align 8
  %114 = getelementptr inbounds nuw %struct.TypeCacheEntry, ptr %113, i32 0, i32 34
  %115 = load i32, ptr %114, align 8
  %116 = icmp eq i32 %115, 0
  br i1 %116, label %117, label %128

117:                                              ; preds = %112
  %118 = load ptr, ptr %2, align 8
  %119 = getelementptr inbounds nuw %struct.TypeCacheEntry, ptr %118, i32 0, i32 35
  store i32 -1, ptr %119, align 4
  %120 = load ptr, ptr %2, align 8
  %121 = getelementptr inbounds nuw %struct.TypeCacheEntry, ptr %120, i32 0, i32 0
  %122 = load i32, ptr %121, align 8
  %123 = load ptr, ptr %2, align 8
  %124 = getelementptr inbounds nuw %struct.TypeCacheEntry, ptr %123, i32 0, i32 35
  %125 = call i32 @getBaseTypeAndTypmod(i32 noundef %122, ptr noundef %124)
  %126 = load ptr, ptr %2, align 8
  %127 = getelementptr inbounds nuw %struct.TypeCacheEntry, ptr %126, i32 0, i32 34
  store i32 %125, ptr %127, align 8
  br label %128

128:                                              ; preds = %117, %112
  %129 = load ptr, ptr %2, align 8
  %130 = getelementptr inbounds nuw %struct.TypeCacheEntry, ptr %129, i32 0, i32 34
  %131 = load i32, ptr %130, align 8
  %132 = call ptr @lookup_type_cache(i32 noundef %131, i32 noundef 16409)
  store ptr %132, ptr %9, align 8
  %133 = load ptr, ptr %9, align 8
  %134 = getelementptr inbounds nuw %struct.TypeCacheEntry, ptr %133, i32 0, i32 6
  %135 = load i8, ptr %134, align 1
  %136 = sext i8 %135 to i32
  %137 = icmp eq i32 %136, 99
  br i1 %137, label %138, label %151

138:                                              ; preds = %128
  %139 = load ptr, ptr %2, align 8
  %140 = getelementptr inbounds nuw %struct.TypeCacheEntry, ptr %139, i32 0, i32 37
  %141 = load i32, ptr %140, align 8
  %142 = or i32 %141, 1048576
  store i32 %142, ptr %140, align 8
  %143 = load ptr, ptr %9, align 8
  %144 = getelementptr inbounds nuw %struct.TypeCacheEntry, ptr %143, i32 0, i32 37
  %145 = load i32, ptr %144, align 8
  %146 = and i32 %145, 491520
  %147 = load ptr, ptr %2, align 8
  %148 = getelementptr inbounds nuw %struct.TypeCacheEntry, ptr %147, i32 0, i32 37
  %149 = load i32, ptr %148, align 8
  %150 = or i32 %149, %146
  store i32 %150, ptr %148, align 8
  br label %151

151:                                              ; preds = %138, %128
  call void @llvm.lifetime.end.p0(i64 8, ptr %9) #11
  br label %152

152:                                              ; preds = %151, %106
  br label %153

153:                                              ; preds = %152, %99
  br label %154

154:                                              ; preds = %153, %14
  %155 = load ptr, ptr %2, align 8
  %156 = getelementptr inbounds nuw %struct.TypeCacheEntry, ptr %155, i32 0, i32 37
  %157 = load i32, ptr %156, align 8
  %158 = or i32 %157, 16384
  store i32 %158, ptr %156, align 8
  ret void

159:                                              ; preds = %93
  unreachable
}