; Function Attrs: nounwind uwtable
define internal fastcc void @cache_record_field_properties(ptr noundef %0) unnamed_addr #0 {
  %2 = load i32, ptr %0, align 8
  %3 = icmp eq i32 %2, 2249
  br i1 %3, label %4, label %8

4:                                                ; preds = %1
  %5 = getelementptr inbounds nuw i8, ptr %0, i64 464
  %6 = load i32, ptr %5, align 8
  %7 = or i32 %6, 98304
  store i32 %7, ptr %5, align 8
  br label %86

8:                                                ; preds = %1
  %9 = getelementptr inbounds nuw i8, ptr %0, i64 13
  %10 = load i8, ptr %9, align 1
  switch i8 %10, label %86 [
    i8 99, label %11
    i8 100, label %65
  ]

11:                                               ; preds = %8
  %12 = getelementptr inbounds nuw i8, ptr %0, i64 264
  %13 = load ptr, ptr %12, align 8
  %14 = icmp eq ptr %13, null
  br i1 %14, label %15, label %31

15:                                               ; preds = %11
  %16 = getelementptr inbounds nuw i8, ptr %0, i64 16
  %17 = load i32, ptr %16, align 8
  %.not.i = icmp eq i32 %17, 0
  br i1 %.not.i, label %18, label %load_typcache_tupdesc.exit

18:                                               ; preds = %15
  %19 = tail call zeroext i1 @errstart_cold(i32 noundef 21, ptr noundef null) #17
  tail call void @llvm.assume(i1 %19)
  %20 = load i32, ptr %0, align 8
  %21 = tail call i32 (ptr, ...) @errmsg_internal(ptr noundef nonnull @.str.10, i32 noundef %20) #16
  tail call void @errfinish(ptr noundef nonnull @.str.3, i32 noundef 973, ptr noundef nonnull @__func__.load_typcache_tupdesc) #16
  unreachable

load_typcache_tupdesc.exit:                       ; preds = %15
  %22 = tail call ptr @relation_open(i32 noundef %17, i32 noundef 1) #16
  %23 = getelementptr inbounds nuw i8, ptr %22, i64 64
  %24 = load ptr, ptr %23, align 8
  store ptr %24, ptr %12, align 8
  %25 = getelementptr inbounds nuw i8, ptr %24, i64 12
  %26 = load i32, ptr %25, align 4
  %27 = add i32 %26, 1
  store i32 %27, ptr %25, align 4
  %28 = load i64, ptr @tupledesc_id_counter, align 8
  %29 = add i64 %28, 1
  store i64 %29, ptr @tupledesc_id_counter, align 8
  %30 = getelementptr inbounds nuw i8, ptr %0, i64 272
  store i64 %29, ptr %30, align 8
  tail call void @relation_close(ptr noundef %22, i32 noundef 1) #16
  %.pre = load ptr, ptr %12, align 8
  br label %31

31:                                               ; preds = %load_typcache_tupdesc.exit, %11
  %32 = phi ptr [ %.pre, %load_typcache_tupdesc.exit ], [ %13, %11 ]
  tail call void @IncrTupleDescRefCount(ptr noundef %32) #16
  %invariant.gep = getelementptr i8, ptr %32, i64 24
  %33 = load i32, ptr %32, align 8
  %34 = icmp sgt i32 %33, 0
  br i1 %34, label %.lr.ph, label %._crit_edge

.lr.ph:                                           ; preds = %31, %.thread
  %35 = phi i32 [ %59, %.thread ], [ %33, %31 ]
  %indvars.iv = phi i64 [ %indvars.iv.next, %.thread ], [ 0, %31 ]
  %.052 = phi i32 [ %.250, %.thread ], [ 491520, %31 ]
  %36 = sext i32 %35 to i64
  %37 = shl nsw i64 %36, 4
  %gep = getelementptr i8, ptr %invariant.gep, i64 %37
  %38 = getelementptr inbounds nuw %struct.FormData_pg_attribute, ptr %gep, i64 %indvars.iv
  %39 = getelementptr inbounds nuw i8, ptr %38, i64 91
  %40 = load i8, ptr %39, align 1, !range !4, !noundef !5
  %41 = trunc nuw i8 %40 to i1
  br i1 %41, label %.thread, label %42

42:                                               ; preds = %.lr.ph
  %43 = getelementptr inbounds nuw i8, ptr %38, i64 68
  %44 = load i32, ptr %43, align 4
  %45 = tail call ptr @lookup_type_cache(i32 noundef %44, i32 noundef 16409)
  %46 = getelementptr inbounds nuw i8, ptr %45, i64 48
  %47 = load i32, ptr %46, align 8
  %.not = icmp eq i32 %47, 0
  %48 = and i32 %.052, -32769
  %spec.select = select i1 %.not, i32 %48, i32 %.052
  %49 = getelementptr inbounds nuw i8, ptr %45, i64 60
  %50 = load i32, ptr %49, align 4
  %.not41 = icmp eq i32 %50, 0
  %51 = and i32 %spec.select, -65537
  %.4 = select i1 %.not41, i32 %51, i32 %spec.select
  %52 = getelementptr inbounds nuw i8, ptr %45, i64 64
  %53 = load i32, ptr %52, align 8
  %.not42 = icmp eq i32 %53, 0
  %54 = and i32 %.4, -131073
  %.5 = select i1 %.not42, i32 %54, i32 %.4
  %55 = getelementptr inbounds nuw i8, ptr %45, i64 68
  %56 = load i32, ptr %55, align 4
  %.not43 = icmp eq i32 %56, 0
  %57 = and i32 %.5, -262145
  %.6 = select i1 %.not43, i32 %57, i32 %.5
  %58 = icmp eq i32 %.6, 0
  br i1 %58, label %._crit_edge, label %..thread_crit_edge

..thread_crit_edge:                               ; preds = %42
  %.pre56 = load i32, ptr %32, align 8
  br label %.thread

.thread:                                          ; preds = %..thread_crit_edge, %.lr.ph
  %59 = phi i32 [ %.pre56, %..thread_crit_edge ], [ %35, %.lr.ph ]
  %.250 = phi i32 [ %.6, %..thread_crit_edge ], [ %.052, %.lr.ph ]
  %indvars.iv.next = add nuw nsw i64 %indvars.iv, 1
  %60 = sext i32 %59 to i64
  %61 = icmp slt i64 %indvars.iv.next, %60
  br i1 %61, label %.lr.ph, label %._crit_edge, !llvm.loop !20

._crit_edge:                                      ; preds = %.thread, %42, %31
  %.1 = phi i32 [ 491520, %31 ], [ 0, %42 ], [ %.250, %.thread ]
  %62 = getelementptr inbounds nuw i8, ptr %0, i64 464
  %63 = load i32, ptr %62, align 8
  %64 = or i32 %63, %.1
  store i32 %64, ptr %62, align 8
  tail call void @DecrTupleDescRefCount(ptr noundef nonnull %32) #16
  br label %86

65:                                               ; preds = %8
  %66 = getelementptr inbounds nuw i8, ptr %0, i64 448
  %67 = load i32, ptr %66, align 8
  %68 = icmp eq i32 %67, 0
  br i1 %68, label %69, label %72

69:                                               ; preds = %65
  %70 = getelementptr inbounds nuw i8, ptr %0, i64 452
  store i32 -1, ptr %70, align 4
  %71 = tail call i32 @getBaseTypeAndTypmod(i32 noundef %2, ptr noundef nonnull %70) #16
  store i32 %71, ptr %66, align 8
  br label %72

72:                                               ; preds = %69, %65
  %73 = phi i32 [ %71, %69 ], [ %67, %65 ]
  %74 = tail call ptr @lookup_type_cache(i32 noundef %73, i32 noundef 16409)
  %75 = getelementptr inbounds nuw i8, ptr %74, i64 13
  %76 = load i8, ptr %75, align 1
  %77 = icmp eq i8 %76, 99
  br i1 %77, label %78, label %86

78:                                               ; preds = %72
  %79 = getelementptr inbounds nuw i8, ptr %0, i64 464
  %80 = load i32, ptr %79, align 8
  %81 = or i32 %80, 1048576
  store i32 %81, ptr %79, align 8
  %82 = getelementptr inbounds nuw i8, ptr %74, i64 464
  %83 = load i32, ptr %82, align 8
  %84 = and i32 %83, 491520
  %85 = or i32 %84, %81
  store i32 %85, ptr %79, align 8
  br label %86

86:                                               ; preds = %72, %78, %8, %._crit_edge, %4
  %87 = getelementptr inbounds nuw i8, ptr %0, i64 464
  %88 = load i32, ptr %87, align 8
  %89 = or i32 %88, 16384
  store i32 %89, ptr %87, align 8
  ret void
}